target datalayout = "e-m:e-p270:32:32-p271:32:32-p272:64:64-i64:64-i128:128-f80:128-n8:16:32:64-S128"
target triple = "x86_64-unknown-linux-gnu"

%struct.QEMUIOVector = type { ptr, i32, %union.anon }
%union.anon = type { %struct.anon }
%struct.anon = type { i32, %struct.iovec }
%struct.iovec = type { ptr, i64 }
%struct.IDEBus = type { %struct.BusState, ptr, ptr, [2 x %struct.IDEState], ptr, i32, i32, ptr, i8, i8, ptr, i32, i8, i64, i32, %struct.PortioList, %struct.PortioList, ptr }
%struct.BusState = type { %struct.Object, ptr, ptr, ptr, i32, i8, i8, i32, %union.BusChildHead, %struct.BusStateEntry, %struct.ResettableState }
%struct.Object = type { ptr, ptr, ptr, i32, ptr }
%union.BusChildHead = type { %struct.QTailQLink }
%struct.QTailQLink = type { ptr, ptr }
%struct.BusStateEntry = type { ptr, ptr }
%struct.ResettableState = type { i32, i8, i8 }
%struct.IDEState = type { ptr, i8, i32, i32, i32, i32, i32, i32, i32, i64, i32, i32, [512 x i8], i32, [21 x i8], [41 x i8], i64, i8, i8, i32, i8, i8, i8, i8, i8, i8, i8, i8, i8, i8, i8, i8, i8, ptr, [9 x i8], %struct.unreported_events, i8, i8, i8, i8, i8, i32, i32, i32, i32, i32, i32, %struct.BlockAcctCookie, ptr, %struct.QEMUIOVector, %struct.anon.1, i64, i32, %struct.QEMUSGList, i32, ptr, ptr, ptr, ptr, i32, i32, i32, i8, ptr, i32, i8, i32, ptr, i32, i32, i8, i8, i32, i8, ptr, i32 }
%struct.unreported_events = type { i8, i8 }
%struct.BlockAcctCookie = type { i64, i64, i32 }
%struct.anon.1 = type { ptr }
%struct.QEMUSGList = type { ptr, i32, i32, i64, ptr, ptr }
%struct.PortioList = type { ptr, ptr, ptr, i32, ptr, ptr, ptr, i8 }
%struct.timeval = type { i64, i64 }

@trace_events_enabled_count = external global i32, align 4
@message_with_timestamp = external global i8, align 1
@qemu_loglevel = external global i32, align 4
@_TRACE_IDE_CTRL_WRITE_DSTATE = external global i16, align 2
@.str.78 = private unnamed_addr constant [84 x i8] c"%d@%zu.%06zu:ide_ctrl_write IDE PIO wr @ 0x%x (Device Control); val 0x%02x; bus %p\0A\00", align 1
@.str.79 = private unnamed_addr constant [71 x i8] c"ide_ctrl_write IDE PIO wr @ 0x%x (Device Control); val 0x%02x; bus %p\0A\00", align 1

; Function Attrs: nounwind sspstrong uwtable
define internal zeroext i1 @qemu_loglevel_mask(i32 noundef %mask) #0 {
entry:
  %mask.addr = alloca i32, align 4
  store i32 %mask, ptr %mask.addr, align 4
  %0 = load i32, ptr @qemu_loglevel, align 4
  %1 = load i32, ptr %mask.addr, align 4
  %and = and i32 %0, %1
  %cmp = icmp ne i32 %and, 0
  ret i1 %cmp
}

; Function Attrs: nounwind sspstrong uwtable
define internal void @_nocheck__trace_ide_ctrl_write(i32 noundef %addr, i32 noundef %val, ptr noundef %bus) #0 {
entry:
  %addr.addr = alloca i32, align 4
  %val.addr = alloca i32, align 4
  %bus.addr = alloca ptr, align 8
  %_now = alloca %struct.timeval, align 8
  store i32 %addr, ptr %addr.addr, align 4
  store i32 %val, ptr %val.addr, align 4
  store ptr %bus, ptr %bus.addr, align 8
  %0 = load i32, ptr @trace_events_enabled_count, align 4
  %tobool = icmp ne i32 %0, 0
  %lnot = xor i1 %tobool, true
  %lnot1 = xor i1 %lnot, true
  %lnot.ext = zext i1 %lnot1 to i32
  %conv = sext i32 %lnot.ext to i64
  %tobool2 = icmp ne i64 %conv, 0
  br i1 %tobool2, label %land.lhs.true, label %if.end11

land.lhs.true:                                    ; preds = %entry
  %1 = load i16, ptr @_TRACE_IDE_CTRL_WRITE_DSTATE, align 2
  %conv3 = zext i16 %1 to i32
  %tobool4 = icmp ne i32 %conv3, 0
  br i1 %tobool4, label %land.lhs.true5, label %if.end11

land.lhs.true5:                                   ; preds = %land.lhs.true
  %call = call zeroext i1 @qemu_loglevel_mask(i32 noundef 32768)
  br i1 %call, label %if.then, label %if.end11

if.then:                                          ; preds = %land.lhs.true5
  %2 = load i8, ptr @message_with_timestamp, align 1
  %tobool7 = trunc i8 %2 to i1
  br i1 %tobool7, label %if.then8, label %if.else

if.then8:                                         ; preds = %if.then
  %call9 = call i32 @gettimeofday(ptr noundef %_now, ptr noundef null) #9
  %call10 = call i32 @qemu_get_thread_id()
  %tv_sec = getelementptr inbounds %struct.timeval, ptr %_now, i32 0, i32 0
  %3 = load i64, ptr %tv_sec, align 8
  %tv_usec = getelementptr inbounds %struct.timeval, ptr %_now, i32 0, i32 1
  %4 = load i64, ptr %tv_usec, align 8
  %5 = load i32, ptr %addr.addr, align 4
  %6 = load i32, ptr %val.addr, align 4
  %7 = load ptr, ptr %bus.addr, align 8
  call void (ptr, ...) @qemu_log(ptr noundef @.str.78, i32 noundef %call10, i64 noundef %3, i64 noundef %4, i32 noundef %5, i32 noundef %6, ptr noundef %7)
  br label %if.end

if.else:                                          ; preds = %if.then
  %8 = load i32, ptr %addr.addr, align 4
  %9 = load i32, ptr %val.addr, align 4
  %10 = load ptr, ptr %bus.addr, align 8
  call void (ptr, ...) @qemu_log(ptr noundef @.str.79, i32 noundef %8, i32 noundef %9, ptr noundef %10)
  br label %if.end

if.end:                                           ; preds = %if.else, %if.then8
  br label %if.end11

if.end11:                                         ; preds = %if.end, %land.lhs.true5, %land.lhs.true, %entry
  ret void
}

; Function Attrs: nounwind sspstrong uwtable
define internal void @trace_ide_ctrl_write(i32 noundef %addr, i32 noundef %val, ptr noundef %bus) #0 {
entry:
  %addr.addr = alloca i32, align 4
  %val.addr = alloca i32, align 4
  %bus.addr = alloca ptr, align 8
  store i32 %addr, ptr %addr.addr, align 4
  store i32 %val, ptr %val.addr, align 4
  store ptr %bus, ptr %bus.addr, align 8
  %0 = load i32, ptr %addr.addr, align 4
  %1 = load i32, ptr %val.addr, align 4
  %2 = load ptr, ptr %bus.addr, align 8
  call void @_nocheck__trace_ide_ctrl_write(i32 noundef %0, i32 noundef %1, ptr noundef %2)
  ret void
}

; Function Attrs: nounwind sspstrong uwtable
define dso_local void @ide_ctrl_write(ptr noundef %opaque, i32 noundef %addr, i32 noundef %val) #0 {
entry:
  %opaque.addr = alloca ptr, align 8
  %addr.addr = alloca i32, align 4
  %val.addr = alloca i32, align 4
  %bus = alloca ptr, align 8
  %s = alloca ptr, align 8
  %i = alloca i32, align 4
  store ptr %opaque, ptr %opaque.addr, align 8
  store i32 %addr, ptr %addr.addr, align 4
  store i32 %val, ptr %val.addr, align 4
  %0 = load ptr, ptr %opaque.addr, align 8
  store ptr %0, ptr %bus, align 8
  %1 = load i32, ptr %addr.addr, align 4
  %2 = load i32, ptr %val.addr, align 4
  %3 = load ptr, ptr %bus, align 8
  call void @trace_ide_ctrl_write(i32 noundef %1, i32 noundef %2, ptr noundef %3)
  %4 = load ptr, ptr %bus, align 8
  %cmd = getelementptr inbounds %struct.IDEBus, ptr %4, i32 0, i32 9
  %5 = load i8, ptr %cmd, align 1
  %conv = zext i8 %5 to i32
  %and = and i32 %conv, 4
  %tobool = icmp ne i32 %and, 0
  br i1 %tobool, label %if.end, label %land.lhs.true

land.lhs.true:                                    ; preds = %entry
  %6 = load i32, ptr %val.addr, align 4
  %and1 = and i32 %6, 4
  %tobool2 = icmp ne i32 %and1, 0
  br i1 %tobool2, label %if.then, label %if.end

if.then:                                          ; preds = %land.lhs.true
  store i32 0, ptr %i, align 4
  br label %for.cond

for.cond:                                         ; preds = %for.inc, %if.then
  %7 = load i32, ptr %i, align 4
  %cmp = icmp slt i32 %7, 2
  br i1 %cmp, label %for.body, label %for.end

for.body:                                         ; preds = %for.cond
  %8 = load ptr, ptr %bus, align 8
  %ifs = getelementptr inbounds %struct.IDEBus, ptr %8, i32 0, i32 3
  %9 = load i32, ptr %i, align 4
  %idxprom = sext i32 %9 to i64
  %arrayidx = getelementptr [2 x %struct.IDEState], ptr %ifs, i64 0, i64 %idxprom
  store ptr %arrayidx, ptr %s, align 8
  %10 = load ptr, ptr %s, align 8
  %status = getelementptr inbounds %struct.IDEState, ptr %10, i32 0, i32 29
  %11 = load i8, ptr %status, align 1
  %conv4 = zext i8 %11 to i32
  %or = or i32 %conv4, 128
  %conv5 = trunc i32 %or to i8
  store i8 %conv5, ptr %status, align 1
  br label %for.inc

for.inc:                                          ; preds = %for.body
  %12 = load i32, ptr %i, align 4
  %inc = add i32 %12, 1
  store i32 %inc, ptr %i, align 4
  br label %for.cond, !llvm.loop !5

for.end:                                          ; preds = %for.cond
  %call = call ptr @qemu_get_aio_context()
  %13 = load ptr, ptr %bus, align 8
  call void @replay_bh_schedule_oneshot_event(ptr noundef %call, ptr noundef @ide_bus_perform_srst, ptr noundef %13)
  br label %if.end

if.end:                                           ; preds = %for.end, %land.lhs.true, %entry
  %14 = load i32, ptr %val.addr, align 4
  %conv6 = trunc i32 %14 to i8
  %15 = load ptr, ptr %bus, align 8
  %cmd7 = getelementptr inbounds %struct.IDEBus, ptr %15, i32 0, i32 9
  store i8 %conv6, ptr %cmd7, align 1
  ret void
}