; Function Attrs: nounwind sspstrong uwtable
define dso_local void @ide_ctrl_write(ptr noundef %opaque, i32 noundef %addr, i32 noundef %val) #0 {
entry:
  %_now.i.i = alloca %struct.timeval, align 8
  call void @llvm.lifetime.start.p0(i64 16, ptr nonnull %_now.i.i)
  %0 = load i32, ptr @trace_events_enabled_count, align 4
  %tobool.i.i = icmp ne i32 %0, 0
  %1 = load i16, ptr @_TRACE_IDE_CTRL_WRITE_DSTATE, align 2
  %tobool4.i.i = icmp ne i16 %1, 0
  %or.cond.i.i = select i1 %tobool.i.i, i1 %tobool4.i.i, i1 false
  br i1 %or.cond.i.i, label %land.lhs.true5.i.i, label %trace_ide_ctrl_write.exit

land.lhs.true5.i.i:                               ; preds = %entry
  %2 = load i32, ptr @qemu_loglevel, align 4
  %and.i.i.i = and i32 %2, 32768
  %cmp.i.not.i.i = icmp eq i32 %and.i.i.i, 0
  br i1 %cmp.i.not.i.i, label %trace_ide_ctrl_write.exit, label %if.then.i.i

if.then.i.i:                                      ; preds = %land.lhs.true5.i.i
  %3 = load i8, ptr @message_with_timestamp, align 1
  %tobool7.i.i = trunc i8 %3 to i1
  br i1 %tobool7.i.i, label %if.then8.i.i, label %if.else.i.i

if.then8.i.i:                                     ; preds = %if.then.i.i
  %call9.i.i = call i32 @gettimeofday(ptr noundef nonnull %_now.i.i, ptr noundef null) #17
  %call10.i.i = tail call i32 @qemu_get_thread_id() #17
  %4 = load i64, ptr %_now.i.i, align 8
  %tv_usec.i.i = getelementptr inbounds nuw i8, ptr %_now.i.i, i64 8
  %5 = load i64, ptr %tv_usec.i.i, align 8
  tail call void (ptr, ...) @qemu_log(ptr noundef nonnull @.str.78, i32 noundef %call10.i.i, i64 noundef %4, i64 noundef %5, i32 noundef %addr, i32 noundef %val, ptr noundef %opaque) #17
  br label %trace_ide_ctrl_write.exit

if.else.i.i:                                      ; preds = %if.then.i.i
  tail call void (ptr, ...) @qemu_log(ptr noundef nonnull @.str.79, i32 noundef %addr, i32 noundef %val, ptr noundef %opaque) #17
  br label %trace_ide_ctrl_write.exit

trace_ide_ctrl_write.exit:                        ; preds = %entry, %land.lhs.true5.i.i, %if.then8.i.i, %if.else.i.i
  call void @llvm.lifetime.end.p0(i64 16, ptr nonnull %_now.i.i)
  %cmd = getelementptr inbounds nuw i8, ptr %opaque, i64 2129
  %6 = load i8, ptr %cmd, align 1
  %7 = and i8 %6, 4
  %tobool.not = icmp ne i8 %7, 0
  %and1 = and i32 %val, 4
  %tobool2.not = icmp eq i32 %and1, 0
  %or.cond = or i1 %tobool2.not, %tobool.not
  br i1 %or.cond, label %if.end, label %for.cond.preheader

for.cond.preheader:                               ; preds = %trace_ide_ctrl_write.exit
  %invariant.gep = getelementptr i8, ptr %opaque, i64 801
  %8 = load i8, ptr %invariant.gep, align 1
  %9 = or i8 %8, -128
  store i8 %9, ptr %invariant.gep, align 1
  %gep.c = getelementptr i8, ptr %opaque, i64 1785
  %10 = load i8, ptr %gep.c, align 1
  %11 = or i8 %10, -128
  store i8 %11, ptr %gep.c, align 1
  %call = tail call ptr @qemu_get_aio_context() #17
  tail call void @replay_bh_schedule_oneshot_event(ptr noundef %call, ptr noundef nonnull @ide_bus_perform_srst, ptr noundef nonnull %opaque) #17
  br label %if.end

if.end:                                           ; preds = %for.cond.preheader, %trace_ide_ctrl_write.exit
  %conv6 = trunc i32 %val to i8
  store i8 %conv6, ptr %cmd, align 1
  ret void
}